; ModuleID = 'bench/cpython/original/Lib_Memzero0.ll'
source_filename = "bench/cpython/original/Lib_Memzero0.ll"
target datalayout = "e-m:e-p270:32:32-p271:32:32-p272:64:64-i64:64-i128:128-f80:128-n8:16:32:64-S128"
target triple = "x86_64-pc-linux-gnu"

; Function Attrs: nounwind uwtable
define hidden void @Lib_Memzero0_memzero0(ptr noundef %0, i64 noundef %1) local_unnamed_addr #0 {
  tail call void @explicit_bzero(ptr noundef %0, i64 noundef %1) #2
  ret void
}

; Function Attrs: nounwind
declare void @explicit_bzero(ptr noundef, i64 noundef) local_unnamed_addr #1


!llvm.module.flags = !{!0, !1, !2}

!0 = !{i32 1, !"wchar_size", i32 4}
!1 = !{i32 8, !"PIC Level", i32 2}
!2 = !{i32 7, !"uwtable", i32 2}
